---
triple:          'arm64-apple-darwin'
binary-path:     '/Users/shashwatkushwaha/Desktop/DSA/output/L19_STLlist'
relocations:
  - { offsetInCU: 0x3AC0, offset: 0x3AC0, size: 0x8, addend: 0x0, symName: __ZNSt3__124__put_character_sequenceB8ue170006IcNS_11char_traitsIcEEEERNS_13basic_ostreamIT_T0_EES7_PKS4_m, symObjAddr: 0x1120, symBinAddr: 0x100002810, symSize: 0x1F4 }
  - { offsetInCU: 0x5FE1, offset: 0x5FE1, size: 0x8, addend: 0x0, symName: __ZNSt3__1neB8ue170006ERKNS_15__list_iteratorIiPvEES4_, symObjAddr: 0x460, symBinAddr: 0x100001B50, symSize: 0x34 }
  - { offsetInCU: 0x601E, offset: 0x601E, size: 0x8, addend: 0x0, symName: __ZNSt3__1lsB8ue170006INS_11char_traitsIcEEEERNS_13basic_ostreamIcT_EES6_PKc, symObjAddr: 0x4C0, symBinAddr: 0x100001BB0, symSize: 0x48 }
  - { offsetInCU: 0x6064, offset: 0x6064, size: 0x8, addend: 0x0, symName: __ZNSt3__14endlB8ue170006IcNS_11char_traitsIcEEEERNS_13basic_ostreamIT_T0_EES7_, symObjAddr: 0x554, symBinAddr: 0x100001C44, symSize: 0x58 }
  - { offsetInCU: 0x60D7, offset: 0x60D7, size: 0x8, addend: 0x0, symName: __ZNSt3__130__libcpp_is_constant_evaluatedB8ue170006Ev, symObjAddr: 0xD24, symBinAddr: 0x100002414, symSize: 0xC }
  - { offsetInCU: 0x60F4, offset: 0x60F4, size: 0x8, addend: 0x0, symName: __ZNSt3__119__libcpp_deallocateB8ue170006EPvmm, symObjAddr: 0xD30, symBinAddr: 0x100002420, symSize: 0x30 }
  - { offsetInCU: 0x613C, offset: 0x613C, size: 0x8, addend: 0x0, symName: __ZNSt3__127__do_deallocate_handle_sizeB8ue170006IJEEEvPvmDpT_, symObjAddr: 0xD60, symBinAddr: 0x100002450, symSize: 0x28 }
  - { offsetInCU: 0x617A, offset: 0x617A, size: 0x8, addend: 0x0, symName: __ZNSt3__124__libcpp_operator_deleteB8ue170006IJPvEEEvDpT_, symObjAddr: 0xD88, symBinAddr: 0x100002478, symSize: 0x24 }
  - { offsetInCU: 0x61AF, offset: 0x61AF, size: 0x8, addend: 0x0, symName: __ZNSt3__1eqB8ue170006ERKNS_15__list_iteratorIiPvEES4_, symObjAddr: 0x10F0, symBinAddr: 0x1000027E0, symSize: 0x30 }
  - { offsetInCU: 0x61EC, offset: 0x61EC, size: 0x8, addend: 0x0, symName: __ZNSt3__116__pad_and_outputB8ue170006IcNS_11char_traitsIcEEEENS_19ostreambuf_iteratorIT_T0_EES6_PKS4_S8_S8_RNS_8ios_baseES4_, symObjAddr: 0x1378, symBinAddr: 0x100002A68, symSize: 0x248 }
  - { offsetInCU: 0x62BB, offset: 0x62BB, size: 0x8, addend: 0x0, symName: __ZNSt3__112__to_addressB8ue170006IKcEEPT_S3_, symObjAddr: 0x18E8, symBinAddr: 0x100002FD8, symSize: 0x14 }
  - { offsetInCU: 0x6323, offset: 0x6323, size: 0x8, addend: 0x0, symName: __ZNSt3__19use_facetB8ue170006INS_5ctypeIcEEEERKT_RKNS_6localeE, symObjAddr: 0x1BC0, symBinAddr: 0x1000032B0, symSize: 0x2C }
  - { offsetInCU: 0x67F0, offset: 0x67F0, size: 0x8, addend: 0x0, symName: __ZNSt3__118__constexpr_strlenB8ue170006EPKc, symObjAddr: 0x1C58, symBinAddr: 0x100003348, symSize: 0x24 }
  - { offsetInCU: 0x683A, offset: 0x683A, size: 0x8, addend: 0x0, symName: __ZNSt3__117__libcpp_allocateB8ue170006Emm, symObjAddr: 0x1FEC, symBinAddr: 0x1000036DC, symSize: 0x28 }
  - { offsetInCU: 0x6877, offset: 0x6877, size: 0x8, addend: 0x0, symName: __ZNSt3__121__libcpp_operator_newB8ue170006IJmEEEPvDpT_, symObjAddr: 0x202C, symBinAddr: 0x10000371C, symSize: 0x24 }
  - { offsetInCU: 0x68B1, offset: 0x68B1, size: 0x8, addend: 0x0, symName: __ZSt28__throw_bad_array_new_lengthB8ue170006v, symObjAddr: 0x1FB8, symBinAddr: 0x1000036A8, symSize: 0x34 }
  - { offsetInCU: 0x9096, offset: 0x9096, size: 0x8, addend: 0x0, symName: _main, symObjAddr: 0x0, symBinAddr: 0x1000016F0, symSize: 0x3A0 }
  - { offsetInCU: 0x91BB, offset: 0x91BB, size: 0x8, addend: 0x0, symName: __ZNSt3__14listIiNS_9allocatorIiEEEC1B8ue170006Ev, symObjAddr: 0x3A0, symBinAddr: 0x100001A90, symSize: 0x2C }
  - { offsetInCU: 0x91E4, offset: 0x91E4, size: 0x8, addend: 0x0, symName: __ZNSt3__14listIiNS_9allocatorIiEEEC1EmRKi, symObjAddr: 0x3CC, symBinAddr: 0x100001ABC, symSize: 0x3C }
  - { offsetInCU: 0x922C, offset: 0x922C, size: 0x8, addend: 0x0, symName: __ZNSt3__14listIiNS_9allocatorIiEEE5beginB8ue170006Ev, symObjAddr: 0x408, symBinAddr: 0x100001AF8, symSize: 0x2C }
  - { offsetInCU: 0x9251, offset: 0x9251, size: 0x8, addend: 0x0, symName: __ZNSt3__14listIiNS_9allocatorIiEEE3endB8ue170006Ev, symObjAddr: 0x434, symBinAddr: 0x100001B24, symSize: 0x2C }
  - { offsetInCU: 0x9276, offset: 0x9276, size: 0x8, addend: 0x0, symName: __ZNKSt3__115__list_iteratorIiPvEdeB8ue170006Ev, symObjAddr: 0x494, symBinAddr: 0x100001B84, symSize: 0x2C }
  - { offsetInCU: 0x929B, offset: 0x929B, size: 0x8, addend: 0x0, symName: __ZNSt3__115__list_iteratorIiPvEppB8ue170006Ev, symObjAddr: 0x508, symBinAddr: 0x100001BF8, symSize: 0x20 }
  - { offsetInCU: 0x92C0, offset: 0x92C0, size: 0x8, addend: 0x0, symName: __ZNSt3__113basic_ostreamIcNS_11char_traitsIcEEElsB8ue170006EPFRS3_S4_E, symObjAddr: 0x528, symBinAddr: 0x100001C18, symSize: 0x2C }
  - { offsetInCU: 0x92F3, offset: 0x92F3, size: 0x8, addend: 0x0, symName: __ZNSt3__14listIiNS_9allocatorIiEEE9push_backERKi, symObjAddr: 0x5AC, symBinAddr: 0x100001C9C, symSize: 0xFC }
  - { offsetInCU: 0x9347, offset: 0x9347, size: 0x8, addend: 0x0, symName: __ZNSt3__14listIiNS_9allocatorIiEEE10push_frontERKi, symObjAddr: 0x6A8, symBinAddr: 0x100001D98, symSize: 0xE8 }
  - { offsetInCU: 0x93AA, offset: 0x93AA, size: 0x8, addend: 0x0, symName: __ZNSt3__14listIiNS_9allocatorIiEEE5eraseENS_21__list_const_iteratorIiPvEE, symObjAddr: 0x790, symBinAddr: 0x100001E80, symSize: 0xA0 }
  - { offsetInCU: 0x941B, offset: 0x941B, size: 0x8, addend: 0x0, symName: __ZNSt3__121__list_const_iteratorIiPvEC1B8ue170006ERKNS_15__list_iteratorIiS1_EE, symObjAddr: 0x830, symBinAddr: 0x100001F20, symSize: 0x34 }
  - { offsetInCU: 0x9453, offset: 0x9453, size: 0x8, addend: 0x0, symName: __ZNKSt3__14listIiNS_9allocatorIiEEE4sizeB8ue170006Ev, symObjAddr: 0x864, symBinAddr: 0x100001F54, symSize: 0x28 }
  - { offsetInCU: 0x9478, offset: 0x9478, size: 0x8, addend: 0x0, symName: __ZNSt3__14listIiNS_9allocatorIiEEED1Ev, symObjAddr: 0x88C, symBinAddr: 0x100001F7C, symSize: 0x2C }
  - { offsetInCU: 0x94A4, offset: 0x94A4, size: 0x8, addend: 0x0, symName: __ZNSt3__14listIiNS_9allocatorIiEEED2Ev, symObjAddr: 0x8C4, symBinAddr: 0x100001FB4, symSize: 0x2C }
  - { offsetInCU: 0x94D0, offset: 0x94D0, size: 0x8, addend: 0x0, symName: __ZNSt3__110__list_impIiNS_9allocatorIiEEED2Ev, symObjAddr: 0x8F0, symBinAddr: 0x100001FE0, symSize: 0x2C }
  - { offsetInCU: 0x94FA, offset: 0x94FA, size: 0x8, addend: 0x0, symName: __ZNSt3__110__list_impIiNS_9allocatorIiEEE5clearEv, symObjAddr: 0x91C, symBinAddr: 0x10000200C, symSize: 0xF4 }
  - { offsetInCU: 0x9569, offset: 0x9569, size: 0x8, addend: 0x0, symName: __ZNKSt3__110__list_impIiNS_9allocatorIiEEE5emptyB8ue170006Ev, symObjAddr: 0xA10, symBinAddr: 0x100002100, symSize: 0x34 }
  - { offsetInCU: 0x958E, offset: 0x958E, size: 0x8, addend: 0x0, symName: __ZNSt3__110__list_impIiNS_9allocatorIiEEE12__node_allocB8ue170006Ev, symObjAddr: 0xA44, symBinAddr: 0x100002134, symSize: 0x28 }
  - { offsetInCU: 0x95B3, offset: 0x95B3, size: 0x8, addend: 0x0, symName: __ZNKSt3__110__list_impIiNS_9allocatorIiEEE13__end_as_linkB8ue170006Ev, symObjAddr: 0xA6C, symBinAddr: 0x10000215C, symSize: 0x58 }
  - { offsetInCU: 0x95D8, offset: 0x95D8, size: 0x8, addend: 0x0, symName: __ZNSt3__110__list_impIiNS_9allocatorIiEEE14__unlink_nodesEPNS_16__list_node_baseIiPvEES7_, symObjAddr: 0xAC4, symBinAddr: 0x1000021B4, symSize: 0x3C }
  - { offsetInCU: 0x960D, offset: 0x960D, size: 0x8, addend: 0x0, symName: __ZNSt3__110__list_impIiNS_9allocatorIiEEE4__szB8ue170006Ev, symObjAddr: 0xB00, symBinAddr: 0x1000021F0, symSize: 0x28 }
  - { offsetInCU: 0x9632, offset: 0x9632, size: 0x8, addend: 0x0, symName: __ZNSt3__116__list_node_baseIiPvE9__as_nodeB8ue170006Ev, symObjAddr: 0xB28, symBinAddr: 0x100002218, symSize: 0x24 }
  - { offsetInCU: 0x9657, offset: 0x9657, size: 0x8, addend: 0x0, symName: __ZNSt3__116allocator_traitsINS_9allocatorINS_11__list_nodeIiPvEEEEE7destroyB8ue170006IivvEEvRS5_PT_, symObjAddr: 0xB4C, symBinAddr: 0x10000223C, symSize: 0x14 }
  - { offsetInCU: 0x9692, offset: 0x9692, size: 0x8, addend: 0x0, symName: __ZNSt3__116allocator_traitsINS_9allocatorINS_11__list_nodeIiPvEEEEE10deallocateB8ue170006ERS5_PS4_m, symObjAddr: 0xB60, symBinAddr: 0x100002250, symSize: 0x34 }
  - { offsetInCU: 0x96D4, offset: 0x96D4, size: 0x8, addend: 0x0, symName: __ZNKSt3__110__list_impIiNS_9allocatorIiEEE4__szB8ue170006Ev, symObjAddr: 0xB94, symBinAddr: 0x100002284, symSize: 0x28 }
  - { offsetInCU: 0x96F9, offset: 0x96F9, size: 0x8, addend: 0x0, symName: __ZNKSt3__117__compressed_pairImNS_9allocatorINS_11__list_nodeIiPvEEEEE5firstB8ue170006Ev, symObjAddr: 0xBBC, symBinAddr: 0x1000022AC, symSize: 0x24 }
  - { offsetInCU: 0x971E, offset: 0x971E, size: 0x8, addend: 0x0, symName: __ZNKSt3__122__compressed_pair_elemImLi0ELb0EE5__getB8ue170006Ev, symObjAddr: 0xBE0, symBinAddr: 0x1000022D0, symSize: 0x14 }
  - { offsetInCU: 0x9743, offset: 0x9743, size: 0x8, addend: 0x0, symName: __ZNSt3__117__compressed_pairImNS_9allocatorINS_11__list_nodeIiPvEEEEE6secondB8ue170006Ev, symObjAddr: 0xBF4, symBinAddr: 0x1000022E4, symSize: 0x24 }
  - { offsetInCU: 0x9768, offset: 0x9768, size: 0x8, addend: 0x0, symName: __ZNSt3__122__compressed_pair_elemINS_9allocatorINS_11__list_nodeIiPvEEEELi1ELb1EE5__getB8ue170006Ev, symObjAddr: 0xC18, symBinAddr: 0x100002308, symSize: 0x14 }
  - { offsetInCU: 0x978D, offset: 0x978D, size: 0x8, addend: 0x0, symName: __ZNSt3__126__list_node_pointer_traitsIiPvE26__unsafe_link_pointer_castB8ue170006EPNS_16__list_node_baseIiS1_EE, symObjAddr: 0xC2C, symBinAddr: 0x10000231C, symSize: 0x14 }
  - { offsetInCU: 0x97B1, offset: 0x97B1, size: 0x8, addend: 0x0, symName: __ZNSt3__116__list_node_baseIiPvE6__selfB8ue170006Ev, symObjAddr: 0xC40, symBinAddr: 0x100002330, symSize: 0x24 }
  - { offsetInCU: 0x97DB, offset: 0x97DB, size: 0x8, addend: 0x0, symName: __ZNSt3__114pointer_traitsIPNS_16__list_node_baseIiPvEEE10pointer_toB8ue170006ERS3_, symObjAddr: 0xC64, symBinAddr: 0x100002354, symSize: 0x14 }
  - { offsetInCU: 0x97FE, offset: 0x97FE, size: 0x8, addend: 0x0, symName: __ZNSt3__117__compressed_pairImNS_9allocatorINS_11__list_nodeIiPvEEEEE5firstB8ue170006Ev, symObjAddr: 0xC78, symBinAddr: 0x100002368, symSize: 0x24 }
  - { offsetInCU: 0x9823, offset: 0x9823, size: 0x8, addend: 0x0, symName: __ZNSt3__122__compressed_pair_elemImLi0ELb0EE5__getB8ue170006Ev, symObjAddr: 0xC9C, symBinAddr: 0x10000238C, symSize: 0x14 }
  - { offsetInCU: 0x9848, offset: 0x9848, size: 0x8, addend: 0x0, symName: __ZNSt3__19allocatorINS_11__list_nodeIiPvEEE10deallocateB8ue170006EPS3_m, symObjAddr: 0xCB0, symBinAddr: 0x1000023A0, symSize: 0x74 }
  - { offsetInCU: 0x9888, offset: 0x9888, size: 0x8, addend: 0x0, symName: __ZNSt3__14listIiNS_9allocatorIiEEEC2B8ue170006Ev, symObjAddr: 0xDAC, symBinAddr: 0x10000249C, symSize: 0x2C }
  - { offsetInCU: 0x98B1, offset: 0x98B1, size: 0x8, addend: 0x0, symName: __ZNSt3__110__list_impIiNS_9allocatorIiEEEC2Ev, symObjAddr: 0xDD8, symBinAddr: 0x1000024C8, symSize: 0x44 }
  - { offsetInCU: 0x98DA, offset: 0x98DA, size: 0x8, addend: 0x0, symName: __ZNSt3__116__list_node_baseIiPvEC1B8ue170006Ev, symObjAddr: 0xE1C, symBinAddr: 0x10000250C, symSize: 0x2C }
  - { offsetInCU: 0x990C, offset: 0x990C, size: 0x8, addend: 0x0, symName: __ZNSt3__117__compressed_pairImNS_9allocatorINS_11__list_nodeIiPvEEEEEC1B8ue170006IiNS_18__default_init_tagEEEOT_OT0_, symObjAddr: 0xE48, symBinAddr: 0x100002538, symSize: 0x3C }
  - { offsetInCU: 0x9962, offset: 0x9962, size: 0x8, addend: 0x0, symName: __ZNSt3__116__list_node_baseIiPvEC2B8ue170006Ev, symObjAddr: 0xE84, symBinAddr: 0x100002574, symSize: 0x4C }
  - { offsetInCU: 0x998A, offset: 0x998A, size: 0x8, addend: 0x0, symName: __ZNSt3__117__compressed_pairImNS_9allocatorINS_11__list_nodeIiPvEEEEEC2B8ue170006IiNS_18__default_init_tagEEEOT_OT0_, symObjAddr: 0xED0, symBinAddr: 0x1000025C0, symSize: 0x40 }
  - { offsetInCU: 0x99E1, offset: 0x99E1, size: 0x8, addend: 0x0, symName: __ZNSt3__122__compressed_pair_elemImLi0ELb0EEC2B8ue170006IivEEOT_, symObjAddr: 0xF10, symBinAddr: 0x100002600, symSize: 0x24 }
  - { offsetInCU: 0x9A21, offset: 0x9A21, size: 0x8, addend: 0x0, symName: __ZNSt3__122__compressed_pair_elemINS_9allocatorINS_11__list_nodeIiPvEEEELi1ELb1EEC2B8ue170006ENS_18__default_init_tagE, symObjAddr: 0xF34, symBinAddr: 0x100002624, symSize: 0x2C }
  - { offsetInCU: 0x9A54, offset: 0x9A54, size: 0x8, addend: 0x0, symName: __ZNSt3__19allocatorINS_11__list_nodeIiPvEEEC2B8ue170006Ev, symObjAddr: 0xF60, symBinAddr: 0x100002650, symSize: 0x2C }
  - { offsetInCU: 0x9A7D, offset: 0x9A7D, size: 0x8, addend: 0x0, symName: __ZNSt3__116__non_trivial_ifILb1ENS_9allocatorINS_11__list_nodeIiPvEEEEEC2B8ue170006Ev, symObjAddr: 0xF8C, symBinAddr: 0x10000267C, symSize: 0x14 }
  - { offsetInCU: 0x9AA6, offset: 0x9AA6, size: 0x8, addend: 0x0, symName: __ZNSt3__14listIiNS_9allocatorIiEEEC2EmRKi, symObjAddr: 0xFA0, symBinAddr: 0x100002690, symSize: 0x98 }
  - { offsetInCU: 0x9AEE, offset: 0x9AEE, size: 0x8, addend: 0x0, symName: __ZNSt3__110__list_impIiNS_9allocatorIiEEE5beginB8ue170006Ev, symObjAddr: 0x1038, symBinAddr: 0x100002728, symSize: 0x30 }
  - { offsetInCU: 0x9B12, offset: 0x9B12, size: 0x8, addend: 0x0, symName: __ZNSt3__115__list_iteratorIiPvEC1B8ue170006EPNS_16__list_node_baseIiS1_EE, symObjAddr: 0x1068, symBinAddr: 0x100002758, symSize: 0x34 }
  - { offsetInCU: 0x9B4A, offset: 0x9B4A, size: 0x8, addend: 0x0, symName: __ZNSt3__115__list_iteratorIiPvEC2B8ue170006EPNS_16__list_node_baseIiS1_EE, symObjAddr: 0x109C, symBinAddr: 0x10000278C, symSize: 0x20 }
  - { offsetInCU: 0x9B82, offset: 0x9B82, size: 0x8, addend: 0x0, symName: __ZNSt3__110__list_impIiNS_9allocatorIiEEE3endB8ue170006Ev, symObjAddr: 0x10BC, symBinAddr: 0x1000027AC, symSize: 0x34 }
  - { offsetInCU: 0x9BA7, offset: 0x9BA7, size: 0x8, addend: 0x0, symName: __ZNSt3__111char_traitsIcE6lengthB8ue170006EPKc, symObjAddr: 0x1314, symBinAddr: 0x100002A04, symSize: 0x48 }
  - { offsetInCU: 0x9BE8, offset: 0x9BE8, size: 0x8, addend: 0x0, symName: __ZNKSt3__113basic_ostreamIcNS_11char_traitsIcEEE6sentrycvbB8ue170006Ev, symObjAddr: 0x135C, symBinAddr: 0x100002A4C, symSize: 0x1C }
  - { offsetInCU: 0x9C0C, offset: 0x9C0C, size: 0x8, addend: 0x0, symName: __ZNSt3__119ostreambuf_iteratorIcNS_11char_traitsIcEEEC1B8ue170006ERNS_13basic_ostreamIcS2_EE, symObjAddr: 0x15C0, symBinAddr: 0x100002CB0, symSize: 0x34 }
  - { offsetInCU: 0x9C43, offset: 0x9C43, size: 0x8, addend: 0x0, symName: __ZNKSt3__18ios_base5flagsB8ue170006Ev, symObjAddr: 0x15F4, symBinAddr: 0x100002CE4, symSize: 0x18 }
  - { offsetInCU: 0x9C6A, offset: 0x9C6A, size: 0x8, addend: 0x0, symName: __ZNKSt3__19basic_iosIcNS_11char_traitsIcEEE4fillB8ue170006Ev, symObjAddr: 0x160C, symBinAddr: 0x100002CFC, symSize: 0x64 }
  - { offsetInCU: 0x9C91, offset: 0x9C91, size: 0x8, addend: 0x0, symName: __ZNKSt3__119ostreambuf_iteratorIcNS_11char_traitsIcEEE6failedB8ue170006Ev, symObjAddr: 0x1670, symBinAddr: 0x100002D60, symSize: 0x24 }
  - { offsetInCU: 0x9CB6, offset: 0x9CB6, size: 0x8, addend: 0x0, symName: __ZNSt3__19basic_iosIcNS_11char_traitsIcEEE8setstateB8ue170006Ej, symObjAddr: 0x1694, symBinAddr: 0x100002D84, symSize: 0x2C }
  - { offsetInCU: 0x9CEA, offset: 0x9CEA, size: 0x8, addend: 0x0, symName: __ZNKSt3__18ios_base5widthB8ue170006Ev, symObjAddr: 0x16C0, symBinAddr: 0x100002DB0, symSize: 0x18 }
  - { offsetInCU: 0x9D11, offset: 0x9D11, size: 0x8, addend: 0x0, symName: __ZNSt3__115basic_streambufIcNS_11char_traitsIcEEE5sputnB8ue170006EPKcl, symObjAddr: 0x16D8, symBinAddr: 0x100002DC8, symSize: 0x3C }
  - { offsetInCU: 0x9D51, offset: 0x9D51, size: 0x8, addend: 0x0, symName: __ZNSt3__112basic_stringIcNS_11char_traitsIcEENS_9allocatorIcEEEC1B8ue170006Emc, symObjAddr: 0x1714, symBinAddr: 0x100002E04, symSize: 0x3C }
  - { offsetInCU: 0x9D98, offset: 0x9D98, size: 0x8, addend: 0x0, symName: __ZNKSt3__112basic_stringIcNS_11char_traitsIcEENS_9allocatorIcEEE4dataB8ue170006Ev, symObjAddr: 0x1750, symBinAddr: 0x100002E40, symSize: 0x28 }
  - { offsetInCU: 0x9DBD, offset: 0x9DBD, size: 0x8, addend: 0x0, symName: __ZNSt3__18ios_base5widthB8ue170006El, symObjAddr: 0x1778, symBinAddr: 0x100002E68, symSize: 0x2C }
  - { offsetInCU: 0x9E01, offset: 0x9E01, size: 0x8, addend: 0x0, symName: __ZNSt3__112basic_stringIcNS_11char_traitsIcEENS_9allocatorIcEEEC2B8ue170006Emc, symObjAddr: 0x17A4, symBinAddr: 0x100002E94, symSize: 0x4C }
  - { offsetInCU: 0x9E47, offset: 0x9E47, size: 0x8, addend: 0x0, symName: __ZNSt3__117__compressed_pairINS_12basic_stringIcNS_11char_traitsIcEENS_9allocatorIcEEE5__repES5_EC1B8ue170006INS_18__default_init_tagESA_EEOT_OT0_, symObjAddr: 0x17F0, symBinAddr: 0x100002EE0, symSize: 0x3C }
  - { offsetInCU: 0x9E9D, offset: 0x9E9D, size: 0x8, addend: 0x0, symName: __ZNSt3__117__compressed_pairINS_12basic_stringIcNS_11char_traitsIcEENS_9allocatorIcEEE5__repES5_EC2B8ue170006INS_18__default_init_tagESA_EEOT_OT0_, symObjAddr: 0x182C, symBinAddr: 0x100002F1C, symSize: 0x3C }
  - { offsetInCU: 0x9EF4, offset: 0x9EF4, size: 0x8, addend: 0x0, symName: __ZNSt3__122__compressed_pair_elemINS_12basic_stringIcNS_11char_traitsIcEENS_9allocatorIcEEE5__repELi0ELb0EEC2B8ue170006ENS_18__default_init_tagE, symObjAddr: 0x1868, symBinAddr: 0x100002F58, symSize: 0x14 }
  - { offsetInCU: 0x9F27, offset: 0x9F27, size: 0x8, addend: 0x0, symName: __ZNSt3__122__compressed_pair_elemINS_9allocatorIcEELi1ELb1EEC2B8ue170006ENS_18__default_init_tagE, symObjAddr: 0x187C, symBinAddr: 0x100002F6C, symSize: 0x2C }
  - { offsetInCU: 0x9F5A, offset: 0x9F5A, size: 0x8, addend: 0x0, symName: __ZNSt3__19allocatorIcEC2B8ue170006Ev, symObjAddr: 0x18A8, symBinAddr: 0x100002F98, symSize: 0x2C }
  - { offsetInCU: 0x9F83, offset: 0x9F83, size: 0x8, addend: 0x0, symName: __ZNSt3__116__non_trivial_ifILb1ENS_9allocatorIcEEEC2B8ue170006Ev, symObjAddr: 0x18D4, symBinAddr: 0x100002FC4, symSize: 0x14 }
  - { offsetInCU: 0x9FAC, offset: 0x9FAC, size: 0x8, addend: 0x0, symName: __ZNKSt3__112basic_stringIcNS_11char_traitsIcEENS_9allocatorIcEEE13__get_pointerB8ue170006Ev, symObjAddr: 0x18FC, symBinAddr: 0x100002FEC, symSize: 0x54 }
  - { offsetInCU: 0x9FD1, offset: 0x9FD1, size: 0x8, addend: 0x0, symName: __ZNKSt3__112basic_stringIcNS_11char_traitsIcEENS_9allocatorIcEEE9__is_longB8ue170006Ev, symObjAddr: 0x1950, symBinAddr: 0x100003040, symSize: 0x74 }
  - { offsetInCU: 0x9FF6, offset: 0x9FF6, size: 0x8, addend: 0x0, symName: __ZNKSt3__112basic_stringIcNS_11char_traitsIcEENS_9allocatorIcEEE18__get_long_pointerB8ue170006Ev, symObjAddr: 0x19C4, symBinAddr: 0x1000030B4, symSize: 0x28 }
  - { offsetInCU: 0xA01B, offset: 0xA01B, size: 0x8, addend: 0x0, symName: __ZNKSt3__112basic_stringIcNS_11char_traitsIcEENS_9allocatorIcEEE19__get_short_pointerB8ue170006Ev, symObjAddr: 0x19EC, symBinAddr: 0x1000030DC, symSize: 0x28 }
  - { offsetInCU: 0xA040, offset: 0xA040, size: 0x8, addend: 0x0, symName: __ZNKSt3__117__compressed_pairINS_12basic_stringIcNS_11char_traitsIcEENS_9allocatorIcEEE5__repES5_E5firstB8ue170006Ev, symObjAddr: 0x1A14, symBinAddr: 0x100003104, symSize: 0x24 }
  - { offsetInCU: 0xA065, offset: 0xA065, size: 0x8, addend: 0x0, symName: __ZNKSt3__122__compressed_pair_elemINS_12basic_stringIcNS_11char_traitsIcEENS_9allocatorIcEEE5__repELi0ELb0EE5__getB8ue170006Ev, symObjAddr: 0x1A38, symBinAddr: 0x100003128, symSize: 0x14 }
  - { offsetInCU: 0xA08A, offset: 0xA08A, size: 0x8, addend: 0x0, symName: __ZNSt3__114pointer_traitsIPKcE10pointer_toB8ue170006ERS1_, symObjAddr: 0x1A4C, symBinAddr: 0x10000313C, symSize: 0x14 }
  - { offsetInCU: 0xA0AC, offset: 0xA0AC, size: 0x8, addend: 0x0, symName: __ZNSt3__119ostreambuf_iteratorIcNS_11char_traitsIcEEEC2B8ue170006ERNS_13basic_ostreamIcS2_EE, symObjAddr: 0x1A60, symBinAddr: 0x100003150, symSize: 0x68 }
  - { offsetInCU: 0xA0E3, offset: 0xA0E3, size: 0x8, addend: 0x0, symName: __ZNKSt3__19basic_iosIcNS_11char_traitsIcEEE5rdbufB8ue170006Ev, symObjAddr: 0x1AC8, symBinAddr: 0x1000031B8, symSize: 0x24 }
  - { offsetInCU: 0xA10A, offset: 0xA10A, size: 0x8, addend: 0x0, symName: __ZNKSt3__18ios_base5rdbufB8ue170006Ev, symObjAddr: 0x1AEC, symBinAddr: 0x1000031DC, symSize: 0x18 }
  - { offsetInCU: 0xA12F, offset: 0xA12F, size: 0x8, addend: 0x0, symName: __ZNSt3__111char_traitsIcE11eq_int_typeB8ue170006Eii, symObjAddr: 0x1B04, symBinAddr: 0x1000031F4, symSize: 0x28 }
  - { offsetInCU: 0xA162, offset: 0xA162, size: 0x8, addend: 0x0, symName: __ZNSt3__111char_traitsIcE3eofB8ue170006Ev, symObjAddr: 0x1B2C, symBinAddr: 0x10000321C, symSize: 0x8 }
  - { offsetInCU: 0xA176, offset: 0xA176, size: 0x8, addend: 0x0, symName: __ZNKSt3__19basic_iosIcNS_11char_traitsIcEEE5widenB8ue170006Ec, symObjAddr: 0x1B34, symBinAddr: 0x100003224, symSize: 0x8C }
  - { offsetInCU: 0xA1E3, offset: 0xA1E3, size: 0x8, addend: 0x0, symName: __ZNKSt3__15ctypeIcE5widenB8ue170006Ec, symObjAddr: 0x1BEC, symBinAddr: 0x1000032DC, symSize: 0x38 }
  - { offsetInCU: 0xA217, offset: 0xA217, size: 0x8, addend: 0x0, symName: __ZNSt3__18ios_base8setstateB8ue170006Ej, symObjAddr: 0x1C24, symBinAddr: 0x100003314, symSize: 0x34 }
  - { offsetInCU: 0xA24D, offset: 0xA24D, size: 0x8, addend: 0x0, symName: __ZNSt3__14listIiNS_9allocatorIiEEE15__allocate_nodeB8ue170006ERNS1_INS_11__list_nodeIiPvEEEE, symObjAddr: 0x1C7C, symBinAddr: 0x10000336C, symSize: 0x70 }
  - { offsetInCU: 0xA290, offset: 0xA290, size: 0x8, addend: 0x0, symName: __ZNSt3__116allocator_traitsINS_9allocatorINS_11__list_nodeIiPvEEEEE9constructB8ue170006IiJRKiEvEEvRS5_PT_DpOT0_, symObjAddr: 0x1CEC, symBinAddr: 0x1000033DC, symSize: 0x34 }
  - { offsetInCU: 0xA2E7, offset: 0xA2E7, size: 0x8, addend: 0x0, symName: __ZNKSt3__110unique_ptrINS_11__list_nodeIiPvEENS_22__allocator_destructorINS_9allocatorIS3_EEEEEptB8ue170006Ev, symObjAddr: 0x1D20, symBinAddr: 0x100003410, symSize: 0x28 }
  - { offsetInCU: 0xA30C, offset: 0xA30C, size: 0x8, addend: 0x0, symName: __ZNSt3__14listIiNS_9allocatorIiEEE20__link_nodes_at_backEPNS_16__list_node_baseIiPvEES7_, symObjAddr: 0x1D48, symBinAddr: 0x100003438, symSize: 0x60 }
  - { offsetInCU: 0xA351, offset: 0xA351, size: 0x8, addend: 0x0, symName: __ZNKSt3__110unique_ptrINS_11__list_nodeIiPvEENS_22__allocator_destructorINS_9allocatorIS3_EEEEE3getB8ue170006Ev, symObjAddr: 0x1DA8, symBinAddr: 0x100003498, symSize: 0x28 }
  - { offsetInCU: 0xA376, offset: 0xA376, size: 0x8, addend: 0x0, symName: __ZNSt3__111__list_nodeIiPvE9__as_linkB8ue170006Ev, symObjAddr: 0x1DD0, symBinAddr: 0x1000034C0, symSize: 0x24 }
  - { offsetInCU: 0xA39B, offset: 0xA39B, size: 0x8, addend: 0x0, symName: __ZNSt3__110unique_ptrINS_11__list_nodeIiPvEENS_22__allocator_destructorINS_9allocatorIS3_EEEEE7releaseB8ue170006Ev, symObjAddr: 0x1DF4, symBinAddr: 0x1000034E4, symSize: 0x44 }
  - { offsetInCU: 0xA3CE, offset: 0xA3CE, size: 0x8, addend: 0x0, symName: __ZNSt3__110unique_ptrINS_11__list_nodeIiPvEENS_22__allocator_destructorINS_9allocatorIS3_EEEEED1B8ue170006Ev, symObjAddr: 0x1E38, symBinAddr: 0x100003528, symSize: 0x2C }
  - { offsetInCU: 0xA3F7, offset: 0xA3F7, size: 0x8, addend: 0x0, symName: __ZNSt3__116allocator_traitsINS_9allocatorINS_11__list_nodeIiPvEEEEE8allocateB8ue170006ERS5_m, symObjAddr: 0x1E64, symBinAddr: 0x100003554, symSize: 0x2C }
  - { offsetInCU: 0xA429, offset: 0xA429, size: 0x8, addend: 0x0, symName: __ZNSt3__122__allocator_destructorINS_9allocatorINS_11__list_nodeIiPvEEEEEC1B8ue170006ERS5_m, symObjAddr: 0x1E90, symBinAddr: 0x100003580, symSize: 0x3C }
  - { offsetInCU: 0xA472, offset: 0xA472, size: 0x8, addend: 0x0, symName: __ZNSt3__110unique_ptrINS_11__list_nodeIiPvEENS_22__allocator_destructorINS_9allocatorIS3_EEEEEC1B8ue170006ILb1EvEEPS3_NS_16__dependent_typeINS_27__unique_ptr_deleter_sfinaeIS7_EEXT_EE20__good_rval_ref_typeE, symObjAddr: 0x1ECC, symBinAddr: 0x1000035BC, symSize: 0x3C }
  - { offsetInCU: 0xA4C2, offset: 0xA4C2, size: 0x8, addend: 0x0, symName: __ZNSt3__19allocatorINS_11__list_nodeIiPvEEE8allocateB8ue170006Em, symObjAddr: 0x1F08, symBinAddr: 0x1000035F8, symSize: 0x8C }
  - { offsetInCU: 0xA4FF, offset: 0xA4FF, size: 0x8, addend: 0x0, symName: __ZNSt3__116allocator_traitsINS_9allocatorINS_11__list_nodeIiPvEEEEE8max_sizeB8ue170006IS5_vEEmRKS5_, symObjAddr: 0x1F94, symBinAddr: 0x100003684, symSize: 0x24 }
  - { offsetInCU: 0xA52D, offset: 0xA52D, size: 0x8, addend: 0x0, symName: __ZNKSt3__19allocatorINS_11__list_nodeIiPvEEE8max_sizeB8ue170006Ev, symObjAddr: 0x2014, symBinAddr: 0x100003704, symSize: 0x18 }
  - { offsetInCU: 0xA552, offset: 0xA552, size: 0x8, addend: 0x0, symName: __ZNSt3__122__allocator_destructorINS_9allocatorINS_11__list_nodeIiPvEEEEEC2B8ue170006ERS5_m, symObjAddr: 0x2050, symBinAddr: 0x100003740, symSize: 0x2C }
  - { offsetInCU: 0xA596, offset: 0xA596, size: 0x8, addend: 0x0, symName: __ZNSt3__110unique_ptrINS_11__list_nodeIiPvEENS_22__allocator_destructorINS_9allocatorIS3_EEEEEC2B8ue170006ILb1EvEEPS3_NS_16__dependent_typeINS_27__unique_ptr_deleter_sfinaeIS7_EEXT_EE20__good_rval_ref_typeE, symObjAddr: 0x207C, symBinAddr: 0x10000376C, symSize: 0x5C }
  - { offsetInCU: 0xA5E5, offset: 0xA5E5, size: 0x8, addend: 0x0, symName: __ZNSt3__117__compressed_pairIPNS_11__list_nodeIiPvEENS_22__allocator_destructorINS_9allocatorIS3_EEEEEC1B8ue170006IRS4_S8_EEOT_OT0_, symObjAddr: 0x20D8, symBinAddr: 0x1000037C8, symSize: 0x3C }
  - { offsetInCU: 0xA63B, offset: 0xA63B, size: 0x8, addend: 0x0, symName: __ZNSt3__117__compressed_pairIPNS_11__list_nodeIiPvEENS_22__allocator_destructorINS_9allocatorIS3_EEEEEC2B8ue170006IRS4_S8_EEOT_OT0_, symObjAddr: 0x2114, symBinAddr: 0x100003804, symSize: 0x48 }
  - { offsetInCU: 0xA692, offset: 0xA692, size: 0x8, addend: 0x0, symName: __ZNSt3__122__compressed_pair_elemIPNS_11__list_nodeIiPvEELi0ELb0EEC2B8ue170006IRS4_vEEOT_, symObjAddr: 0x215C, symBinAddr: 0x10000384C, symSize: 0x24 }
  - { offsetInCU: 0xA6D3, offset: 0xA6D3, size: 0x8, addend: 0x0, symName: __ZNSt3__122__compressed_pair_elemINS_22__allocator_destructorINS_9allocatorINS_11__list_nodeIiPvEEEEEELi1ELb0EEC2B8ue170006IS7_vEEOT_, symObjAddr: 0x2180, symBinAddr: 0x100003870, symSize: 0x24 }
  - { offsetInCU: 0xA714, offset: 0xA714, size: 0x8, addend: 0x0, symName: __ZNSt3__19allocatorINS_11__list_nodeIiPvEEE9constructB8ue170006IiJRKiEEEvPT_DpOT0_, symObjAddr: 0x21A4, symBinAddr: 0x100003894, symSize: 0x28 }
  - { offsetInCU: 0xA769, offset: 0xA769, size: 0x8, addend: 0x0, symName: __ZNKSt3__117__compressed_pairIPNS_11__list_nodeIiPvEENS_22__allocator_destructorINS_9allocatorIS3_EEEEE5firstB8ue170006Ev, symObjAddr: 0x21CC, symBinAddr: 0x1000038BC, symSize: 0x24 }
  - { offsetInCU: 0xA78E, offset: 0xA78E, size: 0x8, addend: 0x0, symName: __ZNKSt3__122__compressed_pair_elemIPNS_11__list_nodeIiPvEELi0ELb0EE5__getB8ue170006Ev, symObjAddr: 0x21F0, symBinAddr: 0x1000038E0, symSize: 0x14 }
  - { offsetInCU: 0xA7B3, offset: 0xA7B3, size: 0x8, addend: 0x0, symName: __ZNSt3__117__compressed_pairIPNS_11__list_nodeIiPvEENS_22__allocator_destructorINS_9allocatorIS3_EEEEE5firstB8ue170006Ev, symObjAddr: 0x2204, symBinAddr: 0x1000038F4, symSize: 0x24 }
  - { offsetInCU: 0xA7D8, offset: 0xA7D8, size: 0x8, addend: 0x0, symName: __ZNSt3__122__compressed_pair_elemIPNS_11__list_nodeIiPvEELi0ELb0EE5__getB8ue170006Ev, symObjAddr: 0x2228, symBinAddr: 0x100003918, symSize: 0x14 }
  - { offsetInCU: 0xA7FC, offset: 0xA7FC, size: 0x8, addend: 0x0, symName: __ZNSt3__110unique_ptrINS_11__list_nodeIiPvEENS_22__allocator_destructorINS_9allocatorIS3_EEEEED2B8ue170006Ev, symObjAddr: 0x223C, symBinAddr: 0x10000392C, symSize: 0x30 }
  - { offsetInCU: 0xA825, offset: 0xA825, size: 0x8, addend: 0x0, symName: __ZNSt3__110unique_ptrINS_11__list_nodeIiPvEENS_22__allocator_destructorINS_9allocatorIS3_EEEEE5resetB8ue170006EPS3_, symObjAddr: 0x226C, symBinAddr: 0x10000395C, symSize: 0x78 }
  - { offsetInCU: 0xA868, offset: 0xA868, size: 0x8, addend: 0x0, symName: __ZNSt3__117__compressed_pairIPNS_11__list_nodeIiPvEENS_22__allocator_destructorINS_9allocatorIS3_EEEEE6secondB8ue170006Ev, symObjAddr: 0x22E4, symBinAddr: 0x1000039D4, symSize: 0x28 }
  - { offsetInCU: 0xA88D, offset: 0xA88D, size: 0x8, addend: 0x0, symName: __ZNSt3__122__allocator_destructorINS_9allocatorINS_11__list_nodeIiPvEEEEEclB8ue170006EPS4_, symObjAddr: 0x230C, symBinAddr: 0x1000039FC, symSize: 0x34 }
  - { offsetInCU: 0xA8C0, offset: 0xA8C0, size: 0x8, addend: 0x0, symName: __ZNSt3__122__compressed_pair_elemINS_22__allocator_destructorINS_9allocatorINS_11__list_nodeIiPvEEEEEELi1ELb0EE5__getB8ue170006Ev, symObjAddr: 0x2340, symBinAddr: 0x100003A30, symSize: 0x14 }
  - { offsetInCU: 0xA8E5, offset: 0xA8E5, size: 0x8, addend: 0x0, symName: __ZNSt3__14listIiNS_9allocatorIiEEE21__link_nodes_at_frontEPNS_16__list_node_baseIiPvEES7_, symObjAddr: 0x2354, symBinAddr: 0x100003A44, symSize: 0x60 }
  - { offsetInCU: 0xA92A, offset: 0xA92A, size: 0x8, addend: 0x0, symName: __ZNSt3__121__list_const_iteratorIiPvEC2B8ue170006ERKNS_15__list_iteratorIiS1_EE, symObjAddr: 0x23B4, symBinAddr: 0x100003AA4, symSize: 0x24 }
...
